V.title{\u000a    color: #999;\u000a}\u000a\u000ahtml,\u000abody,\u000amain {\u000a    height: 100%;\u000a}\u000a\u000a#projects {\u000a    padding-top: 1em;\u000a}\u000a\u000aa:hover{\u000a    text-decoration: none;\u000a}\u000a\u000aa {\u000a    color: #00a2da;\u000a}\u000a\u000aa:hover {\u000a    color: #FE8433;\u000a}\u000a\u000a#panel-body-outros {\u000a    margin-bottom: 3%;\u000a}\u000a
p1
.